target datalayout = "e-m:e-p270:32:32-p271:32:32-p272:64:64-i64:64-i128:128-f80:128-n8:16:32:64-S128"
target triple = "x86_64-pc-linux-gnu"

@Py_IgnoreEnvironmentFlag = external global i32, align 4
@_audit_hook_clear_count = internal global i32 0, align 4
@.str.305 = private unnamed_addr constant [17 x i8] c"_testembed.raise\00", align 1
@.str.306 = private unnamed_addr constant [16 x i8] c"No error raised\00", align 1
@.str.307 = private unnamed_addr constant [15 x i8] c"_testembed.nop\00", align 1
@.str.308 = private unnamed_addr constant [17 x i8] c"Nop event failed\00", align 1
@.str.309 = private unnamed_addr constant [24 x i8] c"Exception not preserved\00", align 1
@.str.310 = private unnamed_addr constant [15 x i8] c"_testembed.set\00", align 1
@.str.311 = private unnamed_addr constant [2 x i8] c"n\00", align 1
@.str.312 = private unnamed_addr constant [17 x i8] c"Set event failed\00", align 1
@.str.313 = private unnamed_addr constant [17 x i8] c"Exception raised\00", align 1
@.str.314 = private unnamed_addr constant [32 x i8] c"Failed to see *userData change\0A\00", align 1

; Function Attrs: nounwind uwtable
define internal i32 @_test_audit(i64 noundef %0) #0 {
  %2 = alloca i32, align 4
  %3 = alloca i64, align 8
  %4 = alloca i64, align 8
  %5 = alloca i32, align 4
  store i64 %0, ptr %3, align 8, !tbaa !37
  call void @llvm.lifetime.start.p0(i64 8, ptr %4) #11
  store i64 0, ptr %4, align 8, !tbaa !37
  store i32 0, ptr @Py_IgnoreEnvironmentFlag, align 4, !tbaa !4
  %6 = call i32 @PySys_AddAuditHook(ptr noundef @_audit_hook, ptr noundef %4)
  call void @_testembed_Py_InitializeFromConfig()
  %7 = call i32 (ptr, ptr, ...) @PySys_Audit(ptr noundef @.str.305, ptr noundef null)
  %8 = icmp eq i32 %7, 0
  br i1 %8, label %9, label %11

9:                                                ; preds = %1
  %10 = call i32 (ptr, ...) @printf(ptr noundef @.str.306)
  store i32 1, ptr %2, align 4
  store i32 1, ptr %5, align 4
  br label %38

11:                                               ; preds = %1
  %12 = call i32 (ptr, ptr, ...) @PySys_Audit(ptr noundef @.str.307, ptr noundef null)
  %13 = icmp ne i32 %12, 0
  br i1 %13, label %14, label %16

14:                                               ; preds = %11
  %15 = call i32 (ptr, ...) @printf(ptr noundef @.str.308)
  call void @PyErr_Clear()
  store i32 2, ptr %2, align 4
  store i32 1, ptr %5, align 4
  br label %38

16:                                               ; preds = %11
  %17 = call ptr @PyErr_Occurred()
  %18 = icmp ne ptr %17, null
  br i1 %18, label %21, label %19

19:                                               ; preds = %16
  %20 = call i32 (ptr, ...) @printf(ptr noundef @.str.309)
  store i32 3, ptr %2, align 4
  store i32 1, ptr %5, align 4
  br label %38

21:                                               ; preds = %16
  call void @PyErr_Clear()
  %22 = load i64, ptr %3, align 8, !tbaa !37
  %23 = call i32 (ptr, ptr, ...) @PySys_Audit(ptr noundef @.str.310, ptr noundef @.str.311, i64 noundef %22)
  %24 = icmp ne i32 %23, 0
  br i1 %24, label %25, label %27

25:                                               ; preds = %21
  call void @PyErr_Print()
  %26 = call i32 (ptr, ...) @printf(ptr noundef @.str.312)
  store i32 4, ptr %2, align 4
  store i32 1, ptr %5, align 4
  br label %38

27:                                               ; preds = %21
  %28 = call ptr @PyErr_Occurred()
  %29 = icmp ne ptr %28, null
  br i1 %29, label %30, label %32

30:                                               ; preds = %27
  %31 = call i32 (ptr, ...) @printf(ptr noundef @.str.313)
  store i32 5, ptr %2, align 4
  store i32 1, ptr %5, align 4
  br label %38

32:                                               ; preds = %27
  %33 = load i64, ptr %4, align 8, !tbaa !37
  %34 = icmp ne i64 %33, 42
  br i1 %34, label %35, label %37

35:                                               ; preds = %32
  %36 = call i32 (ptr, ...) @printf(ptr noundef @.str.314)
  store i32 6, ptr %2, align 4
  store i32 1, ptr %5, align 4
  br label %38

37:                                               ; preds = %32
  store i32 0, ptr %2, align 4
  store i32 1, ptr %5, align 4
  br label %38

38:                                               ; preds = %37, %35, %30, %25, %19, %14, %9
  call void @llvm.lifetime.end.p0(i64 8, ptr %4) #11
  %39 = load i32, ptr %2, align 4
  ret i32 %39
}

; Function Attrs: nounwind uwtable
define internal i32 @test_audit() #0 {
  %1 = alloca i32, align 4
  %2 = alloca i32, align 4
  %3 = alloca i32, align 4
  call void @llvm.lifetime.start.p0(i64 4, ptr %2) #11
  %4 = call i32 @_test_audit(i64 noundef 42)
  store i32 %4, ptr %2, align 4, !tbaa !4
  call void @Py_Finalize()
  %5 = load i32, ptr @_audit_hook_clear_count, align 4, !tbaa !4
  %6 = icmp ne i32 %5, 1
  br i1 %6, label %7, label %10

7:                                                ; preds = %0
  %8 = load i32, ptr @_audit_hook_clear_count, align 4, !tbaa !4
  %9 = or i32 4096, %8
  store i32 %9, ptr %1, align 4
  store i32 1, ptr %3, align 4
  br label %12

10:                                               ; preds = %0
  %11 = load i32, ptr %2, align 4, !tbaa !4
  store i32 %11, ptr %1, align 4
  store i32 1, ptr %3, align 4
  br label %12

12:                                               ; preds = %10, %7
  call void @llvm.lifetime.end.p0(i64 4, ptr %2) #11
  %13 = load i32, ptr %1, align 4
  ret i32 %13
}