; Function Attrs: nounwind uwtable
define internal range(i32 4096, 7) i32 @test_audit() #0 {
  %1 = alloca i64, align 8
  call void @llvm.lifetime.start.p0(i64 8, ptr nonnull %1) #20
  store i64 0, ptr %1, align 8, !tbaa !78
  store i32 0, ptr @Py_IgnoreEnvironmentFlag, align 4, !tbaa !4
  %2 = call i32 @PySys_AddAuditHook(ptr noundef nonnull @_audit_hook, ptr noundef nonnull %1) #20
  call fastcc void @_testembed_Py_InitializeFromConfig()
  %3 = call i32 (ptr, ptr, ...) @PySys_Audit(ptr noundef nonnull @.str.305, ptr noundef null) #20
  %4 = icmp eq i32 %3, 0
  br i1 %4, label %5, label %7

5:                                                ; preds = %0
  %6 = call i32 (ptr, ...) @printf(ptr noundef nonnull dereferenceable(1) @.str.306)
  br label %_test_audit.exit

7:                                                ; preds = %0
  %8 = call i32 (ptr, ptr, ...) @PySys_Audit(ptr noundef nonnull @.str.307, ptr noundef null) #20
  %.not.i = icmp eq i32 %8, 0
  br i1 %.not.i, label %11, label %9

9:                                                ; preds = %7
  %10 = call i32 (ptr, ...) @printf(ptr noundef nonnull dereferenceable(1) @.str.308)
  call void @PyErr_Clear() #20
  br label %_test_audit.exit

11:                                               ; preds = %7
  %12 = call ptr @PyErr_Occurred() #20
  %.not2.i = icmp eq ptr %12, null
  br i1 %.not2.i, label %13, label %15

13:                                               ; preds = %11
  %14 = call i32 (ptr, ...) @printf(ptr noundef nonnull dereferenceable(1) @.str.309)
  br label %_test_audit.exit

15:                                               ; preds = %11
  call void @PyErr_Clear() #20
  %16 = call i32 (ptr, ptr, ...) @PySys_Audit(ptr noundef nonnull @.str.310, ptr noundef nonnull @.str.311, i64 noundef 42) #20
  %.not3.i = icmp eq i32 %16, 0
  br i1 %.not3.i, label %19, label %17

17:                                               ; preds = %15
  call void @PyErr_Print() #20
  %18 = call i32 (ptr, ...) @printf(ptr noundef nonnull dereferenceable(1) @.str.312)
  br label %_test_audit.exit

19:                                               ; preds = %15
  %20 = call ptr @PyErr_Occurred() #20
  %.not4.i = icmp eq ptr %20, null
  br i1 %.not4.i, label %23, label %21

21:                                               ; preds = %19
  %22 = call i32 (ptr, ...) @printf(ptr noundef nonnull dereferenceable(1) @.str.313)
  br label %_test_audit.exit

23:                                               ; preds = %19
  %24 = load i64, ptr %1, align 8, !tbaa !78
  %.not5.i = icmp eq i64 %24, 42
  br i1 %.not5.i, label %_test_audit.exit, label %25

25:                                               ; preds = %23
  %puts.i = call i32 @puts(ptr nonnull dereferenceable(1) @str.32)
  br label %_test_audit.exit

_test_audit.exit:                                 ; preds = %5, %9, %13, %17, %21, %23, %25
  %.0.i = phi i32 [ 1, %5 ], [ 2, %9 ], [ 4, %17 ], [ 5, %21 ], [ 6, %25 ], [ 3, %13 ], [ 0, %23 ]
  call void @llvm.lifetime.end.p0(i64 8, ptr nonnull %1) #20
  call void @Py_Finalize() #20
  %26 = load i32, ptr @_audit_hook_clear_count, align 4, !tbaa !4
  %.not = icmp eq i32 %26, 1
  %27 = or i32 %26, 4096
  %.0 = select i1 %.not, i32 %.0.i, i32 %27
  ret i32 %.0
}